target datalayout = "e-m:e-p270:32:32-p271:32:32-p272:64:64-i64:64-i128:128-f80:128-n8:16:32:64-S128"
target triple = "x86_64-pc-linux-gnu"

%struct.H5S_t = type { %struct.H5S_extent_t, %struct.H5S_select_t }
%struct.H5S_extent_t = type { %struct.H5O_shared_t, i32, i32, i64, i32, ptr, ptr }
%struct.H5O_shared_t = type { i32, ptr, i32, %union.anon }
%union.anon = type { %struct.H5O_mesg_loc_t }
%struct.H5O_mesg_loc_t = type { i32, i64 }
%struct.H5S_select_t = type { ptr, i8, [32 x i64], i64, %union.anon.0 }
%union.anon.0 = type { ptr }
%struct.H5S_hyper_sel_t = type { i32, %struct.H5S_hyper_diminfo_t, i32, i64, ptr }
%struct.H5S_hyper_diminfo_t = type { [32 x %struct.H5S_hyper_dim_t], [32 x %struct.H5S_hyper_dim_t], [32 x i64], [32 x i64] }
%struct.H5S_hyper_dim_t = type { i64, i64, i64, i64 }

@H5S_init_g = external global i8, align 1
@H5_libterm_g = external global i8, align 1
@.str = private unnamed_addr constant [101 x i8] c"generated/home/dtcxzyw/WorkSpace/Projects/compilers/llvm-opt-benchmark/bench/hdf5/hdf5/src/H5Stest.c\00", align 1
@__func__.H5S__get_rebuild_status_test = private unnamed_addr constant [29 x i8] c"H5S__get_rebuild_status_test\00", align 1
@H5E_ARGS_g = external global i64, align 8
@H5E_BADTYPE_g = external global i64, align 8
@.str.1 = private unnamed_addr constant [16 x i8] c"not a dataspace\00", align 1

; Function Attrs: nounwind uwtable
define i32 @H5S__get_rebuild_status_test(i64 noundef %0, ptr noundef %1, ptr noundef %2) #0 {
  %4 = alloca i64, align 8
  %5 = alloca ptr, align 8
  %6 = alloca ptr, align 8
  %7 = alloca ptr, align 8
  %8 = alloca i32, align 4
  %9 = alloca i8, align 1
  store i64 %0, ptr %4, align 8, !tbaa !3
  store ptr %1, ptr %5, align 8, !tbaa !7
  store ptr %2, ptr %6, align 8, !tbaa !7
  call void @llvm.lifetime.start.p0(i64 8, ptr %7) #5
  call void @llvm.lifetime.start.p0(i64 4, ptr %8) #5
  store i32 0, ptr %8, align 4, !tbaa !9
  call void @llvm.lifetime.start.p0(i64 1, ptr %9) #5
  store i8 0, ptr %9, align 1, !tbaa !11
  %10 = load i8, ptr @H5S_init_g, align 1, !tbaa !11, !range !13, !noundef !14
  %11 = trunc i8 %10 to i1
  br i1 %11, label %16, label %12

12:                                               ; preds = %3
  %13 = load i8, ptr @H5_libterm_g, align 1, !tbaa !11, !range !13, !noundef !14
  %14 = trunc i8 %13 to i1
  %15 = xor i1 %14, true
  br label %16

16:                                               ; preds = %12, %3
  %17 = phi i1 [ true, %3 ], [ %15, %12 ]
  %18 = xor i1 %17, true
  %19 = xor i1 %18, true
  %20 = zext i1 %19 to i32
  %21 = sext i32 %20 to i64
  %22 = call i64 @llvm.expect.i64(i64 %21, i64 1)
  %23 = icmp ne i64 %22, 0
  br i1 %23, label %24, label %69

24:                                               ; preds = %16
  %25 = load i64, ptr %4, align 8, !tbaa !3
  %26 = call ptr @H5I_object_verify(i64 noundef %25, i32 noundef 4)
  store ptr %26, ptr %7, align 8, !tbaa !15
  %27 = icmp eq ptr null, %26
  br i1 %27, label %28, label %47

28:                                               ; preds = %24
  br label %29

29:                                               ; preds = %28
  br label %30

30:                                               ; preds = %29
  br label %31

31:                                               ; preds = %30
  %32 = load i64, ptr @H5E_ARGS_g, align 8, !tbaa !3
  %33 = load i64, ptr @H5E_BADTYPE_g, align 8, !tbaa !3
  %34 = call i32 (ptr, ptr, i32, i64, i64, ptr, ...) @H5E_printf_stack(ptr noundef @.str, ptr noundef @__func__.H5S__get_rebuild_status_test, i32 noundef 93, i64 noundef %32, i64 noundef %33, ptr noundef @.str.1)
  br label %35

35:                                               ; preds = %31
  br label %36

36:                                               ; preds = %35
  store i8 1, ptr %9, align 1, !tbaa !11
  %37 = load i8, ptr %9, align 1, !tbaa !11, !range !13, !noundef !14
  %38 = trunc i8 %37 to i1
  %39 = zext i1 %38 to i8
  store i8 %39, ptr %9, align 1, !tbaa !11
  br label %40

40:                                               ; preds = %36
  br label %41

41:                                               ; preds = %40
  br label %42

42:                                               ; preds = %41
  store i32 -1, ptr %8, align 4, !tbaa !9
  br label %68

43:                                               ; No predecessors!
  br label %44

44:                                               ; preds = %43
  br label %45

45:                                               ; preds = %44
  br label %46

46:                                               ; preds = %45
  br label %47

47:                                               ; preds = %46, %24
  %48 = load ptr, ptr %7, align 8, !tbaa !15
  %49 = getelementptr inbounds nuw %struct.H5S_t, ptr %48, i32 0, i32 1
  %50 = getelementptr inbounds nuw %struct.H5S_select_t, ptr %49, i32 0, i32 4
  %51 = load ptr, ptr %50, align 8, !tbaa !17
  %52 = getelementptr inbounds nuw %struct.H5S_hyper_sel_t, ptr %51, i32 0, i32 0
  %53 = load i32, ptr %52, align 8, !tbaa !18
  %54 = load ptr, ptr %5, align 8, !tbaa !7
  store i32 %53, ptr %54, align 4, !tbaa !9
  %55 = load ptr, ptr %5, align 8, !tbaa !7
  %56 = load i32, ptr %55, align 4, !tbaa !9
  %57 = icmp eq i32 %56, 1
  br i1 %57, label %58, label %60

58:                                               ; preds = %47
  %59 = load ptr, ptr %7, align 8, !tbaa !15
  call void @H5S__hyper_rebuild(ptr noundef %59)
  br label %60

60:                                               ; preds = %58, %47
  %61 = load ptr, ptr %7, align 8, !tbaa !15
  %62 = getelementptr inbounds nuw %struct.H5S_t, ptr %61, i32 0, i32 1
  %63 = getelementptr inbounds nuw %struct.H5S_select_t, ptr %62, i32 0, i32 4
  %64 = load ptr, ptr %63, align 8, !tbaa !17
  %65 = getelementptr inbounds nuw %struct.H5S_hyper_sel_t, ptr %64, i32 0, i32 0
  %66 = load i32, ptr %65, align 8, !tbaa !18
  %67 = load ptr, ptr %6, align 8, !tbaa !7
  store i32 %66, ptr %67, align 4, !tbaa !9
  br label %68

68:                                               ; preds = %60, %42
  br label %69

69:                                               ; preds = %68, %16
  %70 = load i32, ptr %8, align 4, !tbaa !9
  call void @llvm.lifetime.end.p0(i64 1, ptr %9) #5
  call void @llvm.lifetime.end.p0(i64 4, ptr %8) #5
  call void @llvm.lifetime.end.p0(i64 8, ptr %7) #5
  ret i32 %70
}