; Function Attrs: nounwind uwtable
define range(i32 -1, 1) i32 @H5S__get_rebuild_status_test(i64 noundef %0, ptr noundef writeonly captures(none) %1, ptr noundef writeonly captures(none) %2) local_unnamed_addr #0 {
  %4 = load i8, ptr @H5S_init_g, align 1, !tbaa !3, !range !7, !noundef !8
  %5 = trunc nuw i8 %4 to i1
  %6 = load i8, ptr @H5_libterm_g, align 1, !range !7
  %7 = trunc nuw i8 %6 to i1
  %8 = xor i1 %7, true
  %9 = select i1 %5, i1 true, i1 %8
  br i1 %9, label %10, label %26, !prof !9

10:                                               ; preds = %3
  %11 = tail call ptr @H5I_object_verify(i64 noundef %0, i32 noundef 4) #5
  %12 = icmp eq ptr %11, null
  br i1 %12, label %13, label %17

13:                                               ; preds = %10
  %14 = load i64, ptr @H5E_ARGS_g, align 8, !tbaa !10
  %15 = load i64, ptr @H5E_BADTYPE_g, align 8, !tbaa !10
  %16 = tail call i32 (ptr, ptr, i32, i64, i64, ptr, ...) @H5E_printf_stack(ptr noundef nonnull @.str, ptr noundef nonnull @__func__.H5S__get_rebuild_status_test, i32 noundef 93, i64 noundef %14, i64 noundef %15, ptr noundef nonnull @.str.1) #5
  br label %26

17:                                               ; preds = %10
  %18 = getelementptr inbounds nuw i8, ptr %11, i64 360
  %19 = load ptr, ptr %18, align 8, !tbaa !12
  %20 = load i32, ptr %19, align 8, !tbaa !13
  store i32 %20, ptr %1, align 4, !tbaa !19
  %21 = icmp eq i32 %20, 1
  br i1 %21, label %22, label %23

22:                                               ; preds = %17
  tail call void @H5S__hyper_rebuild(ptr noundef nonnull %11) #5
  br label %23

23:                                               ; preds = %22, %17
  %24 = load ptr, ptr %18, align 8, !tbaa !12
  %25 = load i32, ptr %24, align 8, !tbaa !13
  store i32 %25, ptr %2, align 4, !tbaa !19
  br label %26

26:                                               ; preds = %13, %23, %3
  %.0 = phi i32 [ -1, %13 ], [ 0, %23 ], [ 0, %3 ]
  ret i32 %.0
}